target datalayout = "e-m:e-p270:32:32-p271:32:32-p272:64:64-i64:64-i128:128-f80:128-n8:16:32:64-S128"
target triple = "x86_64-pc-linux-gnu"

%struct._zend_executor_globals = type { %struct._zval_struct, %struct._zval_struct, [32 x ptr], ptr, ptr, %struct._zend_array, %struct._zend_array, ptr, i32, i32, ptr, ptr, ptr, ptr, ptr, ptr, i64, ptr, ptr, i32, i32, i64, i32, i32, i32, i8, i8, %struct.zend_atomic_bool_s, %struct.zend_atomic_bool_s, ptr, i64, ptr, ptr, %struct._zend_array, %struct._zend_array, i32, i8, %struct._zval_struct, %struct._zval_struct, %struct._zend_stack, %struct._zend_stack, %struct._zend_stack, ptr, i32, i32, i64, ptr, ptr, ptr, %struct._zend_objects_store, ptr, ptr, ptr, [3 x %struct._zend_op], ptr, i8, i8, i64, i32, i32, ptr, [16 x %struct._HashTableIterator], ptr, %union._zend_function, %struct._zend_op, %struct._zend_array, i64, %struct.zend_get_gc_buffer, ptr, ptr, ptr, i64, i8, i32, ptr, ptr, i64, %struct._zend_call_stack, i64, i64, [6 x ptr] }
%struct.zend_atomic_bool_s = type { i8 }
%struct._zval_struct = type { %union._zend_value, %union.anon, %union.anon.2 }
%union._zend_value = type { i64 }
%union.anon = type { i32 }
%union.anon.2 = type { i32 }
%struct._zend_stack = type { i32, i32, i32, ptr }
%struct._zend_objects_store = type { ptr, i32, i32, i32 }
%struct._HashTableIterator = type { ptr, i32, i32 }
%union._zend_function = type { %struct._zend_op_array }
%struct._zend_op_array = type { i8, [3 x i8], i32, ptr, ptr, ptr, i32, i32, ptr, ptr, ptr, ptr, i32, i32, i32, i32, ptr, ptr, ptr, ptr, ptr, i32, i32, ptr, ptr, ptr, i32, i32, i32, i32, ptr, ptr, [6 x ptr] }
%struct._zend_op = type { ptr, %union._znode_op, %union._znode_op, %union._znode_op, i32, i32, i8, i8, i8, i8 }
%union._znode_op = type { i32 }
%struct._zend_array = type { %struct._zend_refcounted_h, %union.anon.4, i32, %union.anon.6, i32, i32, i32, i32, i64, ptr }
%struct._zend_refcounted_h = type { i32, %union.anon.3 }
%union.anon.3 = type { i32 }
%union.anon.4 = type { i32 }
%union.anon.6 = type { ptr }
%struct.zend_get_gc_buffer = type { ptr, ptr, ptr }
%struct._zend_call_stack = type { ptr, i64 }
%struct._zend_execute_data = type { ptr, ptr, ptr, ptr, %struct._zval_struct, ptr, ptr, ptr, ptr }
%struct._zend_object = type { %struct._zend_refcounted_h, i32, ptr, ptr, ptr, [1 x %struct._zval_struct] }
%struct._zend_class_entry = type { i8, ptr, %union.anon.15, i32, i32, i32, i32, ptr, ptr, ptr, %struct._zend_array, %struct._zend_array, %struct._zend_array, ptr, ptr, ptr, ptr, ptr, ptr, ptr, ptr, ptr, ptr, ptr, ptr, ptr, ptr, ptr, ptr, ptr, ptr, ptr, %union.anon.16, ptr, ptr, ptr, ptr, i32, i32, %union.anon.17, ptr, ptr, ptr, ptr, i32, ptr, ptr, %union.anon.18 }
%union.anon.15 = type { ptr }
%union.anon.16 = type { ptr }
%union.anon.17 = type { ptr }
%union.anon.18 = type { %struct.anon.19 }
%struct.anon.19 = type { ptr, i32, i32 }
%struct._zend_string = type { %struct._zend_refcounted_h, i64, i64, [1 x i8] }
%struct._spl_dual_it_object = type { %struct.anon.8, %struct.anon.9, i32, %union.anon.10, %struct._zend_object }
%struct.anon.8 = type { %struct._zval_struct, ptr, ptr, ptr }
%struct.anon.9 = type { %struct._zval_struct, %struct._zval_struct, i64 }
%union.anon.10 = type { %struct.anon.12 }
%struct.anon.12 = type { i64, ptr, %struct._zval_struct, %struct._zval_struct }
%struct.anon.14 = type { i64, i64, ptr, ptr, i32 }
%struct._zend_refcounted = type { %struct._zend_refcounted_h }

@executor_globals = external global %struct._zend_executor_globals, align 8
@.str = private unnamed_addr constant [75 x i8] c"The object is in an invalid state as the parent constructor was not called\00", align 1
@.str.3 = private unnamed_addr constant [12 x i8] c"getchildren\00", align 1

; Function Attrs: nounwind uwtable
define internal void @spl_instantiate_arg_n(ptr noundef %0, ptr noundef %1, i32 noundef %2, ptr noundef %3) #0 {
  %5 = alloca ptr, align 8
  %6 = alloca ptr, align 8
  %7 = alloca ptr, align 8
  %8 = alloca i32, align 4
  %9 = alloca ptr, align 8
  %10 = alloca ptr, align 8
  %11 = alloca ptr, align 8
  %12 = alloca i32, align 4
  %13 = alloca ptr, align 8
  store ptr %0, ptr %10, align 8
  store ptr %1, ptr %11, align 8
  store i32 %2, ptr %12, align 4
  store ptr %3, ptr %13, align 8
  %14 = load ptr, ptr %11, align 8
  %15 = load ptr, ptr %10, align 8
  %16 = call i32 @object_init_ex(ptr noundef %14, ptr noundef %15)
  %17 = load ptr, ptr %10, align 8
  %18 = getelementptr inbounds %struct._zend_class_entry, ptr %17, i32 0, i32 16
  %19 = load ptr, ptr %18, align 8
  %20 = load ptr, ptr %11, align 8
  %21 = getelementptr inbounds %struct._zval_struct, ptr %20, i32 0, i32 0
  %22 = load ptr, ptr %21, align 8
  %23 = load i32, ptr %12, align 4
  %24 = load ptr, ptr %13, align 8
  store ptr %19, ptr %5, align 8
  store ptr %22, ptr %6, align 8
  store ptr null, ptr %7, align 8
  store i32 %23, ptr %8, align 4
  store ptr %24, ptr %9, align 8
  %25 = load ptr, ptr %5, align 8
  %26 = load ptr, ptr %6, align 8
  %27 = load ptr, ptr %6, align 8
  %28 = getelementptr inbounds %struct._zend_object, ptr %27, i32 0, i32 2
  %29 = load ptr, ptr %28, align 8
  %30 = load ptr, ptr %7, align 8
  %31 = load i32, ptr %8, align 4
  %32 = load ptr, ptr %9, align 8
  call void @zend_call_known_function(ptr noundef %25, ptr noundef %26, ptr noundef %29, ptr noundef %30, i32 noundef %31, ptr noundef %32, ptr noundef null) #10
  ret void
}

; Function Attrs: nounwind uwtable
define internal ptr @spl_dual_it_from_obj(ptr noundef %0) #0 {
  %2 = alloca ptr, align 8
  store ptr %0, ptr %2, align 8
  %3 = load ptr, ptr %2, align 8
  %4 = getelementptr inbounds i8, ptr %3, i64 -136
  ret ptr %4
}

; Function Attrs: nounwind uwtable
define hidden void @zim_RecursiveRegexIterator_getChildren(ptr noundef %0, ptr noundef %1) #0 {
  %3 = alloca ptr, align 8
  %4 = alloca ptr, align 8
  %5 = alloca i32, align 4
  %6 = alloca ptr, align 8
  %7 = alloca ptr, align 8
  %8 = alloca ptr, align 8
  %9 = alloca ptr, align 8
  %10 = alloca ptr, align 8
  %11 = alloca ptr, align 8
  %12 = alloca ptr, align 8
  %13 = alloca ptr, align 8
  %14 = alloca %struct._zval_struct, align 8
  %15 = alloca ptr, align 8
  %16 = alloca [5 x %struct._zval_struct], align 16
  %17 = alloca ptr, align 8
  %18 = alloca ptr, align 8
  %19 = alloca ptr, align 8
  %20 = alloca i32, align 4
  %21 = alloca ptr, align 8
  %22 = alloca ptr, align 8
  %23 = alloca ptr, align 8
  %24 = alloca ptr, align 8
  %25 = alloca ptr, align 8
  store ptr %0, ptr %11, align 8
  store ptr %1, ptr %12, align 8
  %26 = load ptr, ptr %11, align 8
  %27 = getelementptr inbounds %struct._zend_execute_data, ptr %26, i32 0, i32 4
  %28 = getelementptr inbounds %struct._zval_struct, ptr %27, i32 0, i32 2
  %29 = load i32, ptr %28, align 4
  %30 = icmp eq i32 %29, 0
  %31 = xor i1 %30, true
  %32 = xor i1 %31, true
  %33 = zext i1 %32 to i32
  %34 = sext i32 %33 to i64
  %35 = icmp ne i64 %34, 0
  br i1 %35, label %36, label %37

36:                                               ; preds = %2
  br label %38

37:                                               ; preds = %2
  call void @zend_wrong_parameters_none_error()
  br label %38

38:                                               ; preds = %37, %36
  %39 = phi i32 [ 0, %36 ], [ -1, %37 ]
  %40 = icmp eq i32 %39, -1
  br i1 %40, label %41, label %46

41:                                               ; preds = %38
  br label %42

42:                                               ; preds = %41
  %43 = load ptr, ptr getelementptr inbounds (%struct._zend_executor_globals, ptr @executor_globals, i32 0, i32 50), align 8
  %44 = icmp ne ptr %43, null
  call void @llvm.assume(i1 %44)
  br label %187

45:                                               ; No predecessors!
  br label %46

46:                                               ; preds = %45, %38
  br label %47

47:                                               ; preds = %46
  %48 = load ptr, ptr %11, align 8
  %49 = getelementptr inbounds %struct._zend_execute_data, ptr %48, i32 0, i32 4
  %50 = getelementptr inbounds %struct._zval_struct, ptr %49, i32 0, i32 0
  %51 = load ptr, ptr %50, align 8
  %52 = call ptr @spl_dual_it_from_obj(ptr noundef %51)
  store ptr %52, ptr %15, align 8
  %53 = load ptr, ptr %15, align 8
  %54 = getelementptr inbounds %struct._spl_dual_it_object, ptr %53, i32 0, i32 2
  %55 = load i32, ptr %54, align 8
  %56 = icmp eq i32 %55, -1
  br i1 %56, label %57, label %62

57:                                               ; preds = %47
  call void (ptr, ptr, ...) @zend_throw_error(ptr noundef null, ptr noundef @.str)
  br label %58

58:                                               ; preds = %57
  %59 = load ptr, ptr getelementptr inbounds (%struct._zend_executor_globals, ptr @executor_globals, i32 0, i32 50), align 8
  %60 = icmp ne ptr %59, null
  call void @llvm.assume(i1 %60)
  br label %187

61:                                               ; No predecessors!
  br label %62

62:                                               ; preds = %61, %47
  %63 = load ptr, ptr %15, align 8
  store ptr %63, ptr %13, align 8
  br label %64

64:                                               ; preds = %62
  %65 = load ptr, ptr %13, align 8
  %66 = getelementptr inbounds %struct._spl_dual_it_object, ptr %65, i32 0, i32 0
  %67 = getelementptr inbounds %struct.anon.8, ptr %66, i32 0, i32 0
  %68 = getelementptr inbounds %struct._zval_struct, ptr %67, i32 0, i32 0
  %69 = load ptr, ptr %68, align 8
  %70 = load ptr, ptr %13, align 8
  %71 = getelementptr inbounds %struct._spl_dual_it_object, ptr %70, i32 0, i32 0
  %72 = getelementptr inbounds %struct.anon.8, ptr %71, i32 0, i32 1
  %73 = load ptr, ptr %72, align 8
  store ptr %69, ptr %6, align 8
  store ptr %73, ptr %7, align 8
  store ptr null, ptr %8, align 8
  store ptr @.str.3, ptr %9, align 8
  store ptr %14, ptr %10, align 8
  %74 = load ptr, ptr %6, align 8
  %75 = load ptr, ptr %7, align 8
  %76 = load ptr, ptr %8, align 8
  %77 = load ptr, ptr %9, align 8
  %78 = load ptr, ptr %9, align 8
  %79 = call i64 @strlen(ptr noundef %78) #11
  %80 = load ptr, ptr %10, align 8
  %81 = call ptr @zend_call_method(ptr noundef %74, ptr noundef %75, ptr noundef %76, ptr noundef %77, i64 noundef %79, ptr noundef %80, i32 noundef 0, ptr noundef null, ptr noundef null) #10
  %82 = load ptr, ptr getelementptr inbounds (%struct._zend_executor_globals, ptr @executor_globals, i32 0, i32 50), align 8
  %83 = icmp ne ptr %82, null
  br i1 %83, label %186, label %84

84:                                               ; preds = %64
  br label %85

85:                                               ; preds = %84
  %86 = getelementptr inbounds [5 x %struct._zval_struct], ptr %16, i64 0, i64 0
  store ptr %86, ptr %17, align 8
  store ptr %14, ptr %18, align 8
  %87 = load ptr, ptr %18, align 8
  %88 = getelementptr inbounds %struct._zval_struct, ptr %87, i32 0, i32 0
  %89 = load ptr, ptr %88, align 8
  store ptr %89, ptr %19, align 8
  %90 = load ptr, ptr %18, align 8
  %91 = getelementptr inbounds %struct._zval_struct, ptr %90, i32 0, i32 1
  %92 = load i32, ptr %91, align 8
  store i32 %92, ptr %20, align 4
  br label %93

93:                                               ; preds = %85
  %94 = load ptr, ptr %19, align 8
  %95 = load ptr, ptr %17, align 8
  %96 = getelementptr inbounds %struct._zval_struct, ptr %95, i32 0, i32 0
  store ptr %94, ptr %96, align 8
  %97 = load i32, ptr %20, align 4
  %98 = load ptr, ptr %17, align 8
  %99 = getelementptr inbounds %struct._zval_struct, ptr %98, i32 0, i32 1
  store i32 %97, ptr %99, align 8
  br label %100

100:                                              ; preds = %93
  %101 = load i32, ptr %20, align 4
  %102 = and i32 %101, 65280
  %103 = icmp ne i32 %102, 0
  br i1 %103, label %104, label %110

104:                                              ; preds = %100
  %105 = load ptr, ptr %19, align 8
  %106 = getelementptr inbounds %struct._zend_refcounted, ptr %105, i32 0, i32 0
  store ptr %106, ptr %3, align 8
  %107 = load ptr, ptr %3, align 8
  %108 = load i32, ptr %107, align 4
  %109 = add i32 %108, 1
  store i32 %109, ptr %107, align 4
  br label %110

110:                                              ; preds = %104, %100
  br label %111

111:                                              ; preds = %110
  br label %112

112:                                              ; preds = %111
  %113 = getelementptr inbounds [5 x %struct._zval_struct], ptr %16, i64 0, i64 1
  store ptr %113, ptr %21, align 8
  %114 = load ptr, ptr %13, align 8
  %115 = getelementptr inbounds %struct._spl_dual_it_object, ptr %114, i32 0, i32 3
  %116 = getelementptr inbounds %struct.anon.14, ptr %115, i32 0, i32 3
  %117 = load ptr, ptr %116, align 8
  store ptr %117, ptr %22, align 8
  %118 = load ptr, ptr %22, align 8
  %119 = load ptr, ptr %21, align 8
  %120 = getelementptr inbounds %struct._zval_struct, ptr %119, i32 0, i32 0
  store ptr %118, ptr %120, align 8
  %121 = load ptr, ptr %22, align 8
  %122 = getelementptr inbounds %struct._zend_string, ptr %121, i32 0, i32 0
  %123 = getelementptr inbounds %struct._zend_refcounted_h, ptr %122, i32 0, i32 1
  %124 = load i32, ptr %123, align 4
  store i32 %124, ptr %5, align 4
  %125 = load i32, ptr %5, align 4
  %126 = and i32 %125, 1008
  %127 = and i32 %126, 64
  %128 = icmp ne i32 %127, 0
  br i1 %128, label %129, label %132

129:                                              ; preds = %112
  %130 = load ptr, ptr %21, align 8
  %131 = getelementptr inbounds %struct._zval_struct, ptr %130, i32 0, i32 1
  store i32 6, ptr %131, align 8
  br label %140

132:                                              ; preds = %112
  %133 = load ptr, ptr %22, align 8
  %134 = getelementptr inbounds %struct._zend_string, ptr %133, i32 0, i32 0
  store ptr %134, ptr %4, align 8
  %135 = load ptr, ptr %4, align 8
  %136 = load i32, ptr %135, align 4
  %137 = add i32 %136, 1
  store i32 %137, ptr %135, align 4
  %138 = load ptr, ptr %21, align 8
  %139 = getelementptr inbounds %struct._zval_struct, ptr %138, i32 0, i32 1
  store i32 262, ptr %139, align 8
  br label %140

140:                                              ; preds = %132, %129
  br label %141

141:                                              ; preds = %140
  br label %142

142:                                              ; preds = %141
  %143 = getelementptr inbounds [5 x %struct._zval_struct], ptr %16, i64 0, i64 2
  store ptr %143, ptr %23, align 8
  %144 = load ptr, ptr %13, align 8
  %145 = getelementptr inbounds %struct._spl_dual_it_object, ptr %144, i32 0, i32 3
  %146 = getelementptr inbounds %struct.anon.14, ptr %145, i32 0, i32 4
  %147 = load i32, ptr %146, align 8
  %148 = zext i32 %147 to i64
  %149 = load ptr, ptr %23, align 8
  %150 = getelementptr inbounds %struct._zval_struct, ptr %149, i32 0, i32 0
  store i64 %148, ptr %150, align 8
  %151 = load ptr, ptr %23, align 8
  %152 = getelementptr inbounds %struct._zval_struct, ptr %151, i32 0, i32 1
  store i32 4, ptr %152, align 8
  br label %153

153:                                              ; preds = %142
  br label %154

154:                                              ; preds = %153
  %155 = getelementptr inbounds [5 x %struct._zval_struct], ptr %16, i64 0, i64 3
  store ptr %155, ptr %24, align 8
  %156 = load ptr, ptr %13, align 8
  %157 = getelementptr inbounds %struct._spl_dual_it_object, ptr %156, i32 0, i32 3
  %158 = getelementptr inbounds %struct.anon.14, ptr %157, i32 0, i32 0
  %159 = load i64, ptr %158, align 8
  %160 = load ptr, ptr %24, align 8
  %161 = getelementptr inbounds %struct._zval_struct, ptr %160, i32 0, i32 0
  store i64 %159, ptr %161, align 8
  %162 = load ptr, ptr %24, align 8
  %163 = getelementptr inbounds %struct._zval_struct, ptr %162, i32 0, i32 1
  store i32 4, ptr %163, align 8
  br label %164

164:                                              ; preds = %154
  br label %165

165:                                              ; preds = %164
  %166 = getelementptr inbounds [5 x %struct._zval_struct], ptr %16, i64 0, i64 4
  store ptr %166, ptr %25, align 8
  %167 = load ptr, ptr %13, align 8
  %168 = getelementptr inbounds %struct._spl_dual_it_object, ptr %167, i32 0, i32 3
  %169 = getelementptr inbounds %struct.anon.14, ptr %168, i32 0, i32 1
  %170 = load i64, ptr %169, align 8
  %171 = load ptr, ptr %25, align 8
  %172 = getelementptr inbounds %struct._zval_struct, ptr %171, i32 0, i32 0
  store i64 %170, ptr %172, align 8
  %173 = load ptr, ptr %25, align 8
  %174 = getelementptr inbounds %struct._zval_struct, ptr %173, i32 0, i32 1
  store i32 4, ptr %174, align 8
  br label %175

175:                                              ; preds = %165
  %176 = load ptr, ptr %11, align 8
  %177 = getelementptr inbounds %struct._zend_execute_data, ptr %176, i32 0, i32 4
  %178 = getelementptr inbounds %struct._zval_struct, ptr %177, i32 0, i32 0
  %179 = load ptr, ptr %178, align 8
  %180 = getelementptr inbounds %struct._zend_object, ptr %179, i32 0, i32 2
  %181 = load ptr, ptr %180, align 8
  %182 = load ptr, ptr %12, align 8
  %183 = getelementptr inbounds [5 x %struct._zval_struct], ptr %16, i64 0, i64 0
  call void @spl_instantiate_arg_n(ptr noundef %181, ptr noundef %182, i32 noundef 5, ptr noundef %183)
  %184 = getelementptr inbounds [5 x %struct._zval_struct], ptr %16, i64 0, i64 0
  call void @zval_ptr_dtor(ptr noundef %184)
  %185 = getelementptr inbounds [5 x %struct._zval_struct], ptr %16, i64 0, i64 1
  call void @zval_ptr_dtor(ptr noundef %185)
  br label %186

186:                                              ; preds = %175, %64
  call void @zval_ptr_dtor(ptr noundef %14)
  br label %187

187:                                              ; preds = %186, %58, %42
  ret void
}