; Function Attrs: nounwind uwtable
define hidden void @zim_RecursiveRegexIterator_getChildren(ptr nocapture noundef readonly %0, ptr noundef %1) #0 {
  %3 = alloca %struct._zval_struct, align 8
  %4 = alloca [5 x %struct._zval_struct], align 16
  %5 = getelementptr inbounds i8, ptr %0, i64 32
  %6 = getelementptr inbounds i8, ptr %0, i64 44
  %7 = load i32, ptr %6, align 4
  %.not = icmp eq i32 %7, 0
  br i1 %.not, label %.critedge, label %8

8:                                                ; preds = %2
  tail call void @zend_wrong_parameters_none_error() #10
  %9 = load ptr, ptr getelementptr inbounds (%struct._zend_executor_globals, ptr @executor_globals, i64 0, i32 50), align 8
  %10 = icmp ne ptr %9, null
  tail call void @llvm.assume(i1 %10)
  br label %69

.critedge:                                        ; preds = %2
  %11 = load ptr, ptr %5, align 8
  %12 = getelementptr inbounds i8, ptr %11, i64 -56
  %13 = load i32, ptr %12, align 8
  %14 = icmp eq i32 %13, -1
  br i1 %14, label %15, label %18

15:                                               ; preds = %.critedge
  tail call void (ptr, ptr, ...) @zend_throw_error(ptr noundef null, ptr noundef nonnull @.str) #10
  %16 = load ptr, ptr getelementptr inbounds (%struct._zend_executor_globals, ptr @executor_globals, i64 0, i32 50), align 8
  %17 = icmp ne ptr %16, null
  tail call void @llvm.assume(i1 %17)
  br label %69

18:                                               ; preds = %.critedge
  %19 = getelementptr inbounds i8, ptr %11, i64 -136
  %20 = load ptr, ptr %19, align 8
  %21 = getelementptr inbounds i8, ptr %11, i64 -120
  %22 = load ptr, ptr %21, align 8
  %23 = call ptr @zend_call_method(ptr noundef %20, ptr noundef %22, ptr noundef null, ptr noundef nonnull @.str.3, i64 noundef 11, ptr noundef nonnull %3, i32 noundef 0, ptr noundef null, ptr noundef null) #10
  %24 = load ptr, ptr getelementptr inbounds (%struct._zend_executor_globals, ptr @executor_globals, i64 0, i32 50), align 8
  %.not40 = icmp eq ptr %24, null
  br i1 %.not40, label %25, label %68

25:                                               ; preds = %18
  %26 = load ptr, ptr %3, align 8
  %27 = getelementptr inbounds i8, ptr %3, i64 8
  %28 = load i32, ptr %27, align 8
  store ptr %26, ptr %4, align 16
  %29 = getelementptr inbounds i8, ptr %4, i64 8
  store i32 %28, ptr %29, align 8
  %30 = and i32 %28, 65280
  %.not41 = icmp eq i32 %30, 0
  br i1 %.not41, label %34, label %31

31:                                               ; preds = %25
  %32 = load i32, ptr %26, align 4
  %33 = add i32 %32, 1
  store i32 %33, ptr %26, align 4
  br label %34

34:                                               ; preds = %31, %25
  %35 = getelementptr inbounds i8, ptr %4, i64 16
  %36 = getelementptr inbounds i8, ptr %11, i64 -48
  %37 = getelementptr inbounds i8, ptr %11, i64 -24
  %38 = load ptr, ptr %37, align 8
  store ptr %38, ptr %35, align 16
  %39 = getelementptr inbounds i8, ptr %38, i64 4
  %40 = load i32, ptr %39, align 4
  %41 = and i32 %40, 64
  %.not42 = icmp eq i32 %41, 0
  br i1 %.not42, label %42, label %45

42:                                               ; preds = %34
  %43 = load i32, ptr %38, align 4
  %44 = add i32 %43, 1
  store i32 %44, ptr %38, align 4
  br label %45

45:                                               ; preds = %34, %42
  %.sink = phi i32 [ 262, %42 ], [ 6, %34 ]
  %46 = getelementptr inbounds i8, ptr %4, i64 24
  store i32 %.sink, ptr %46, align 8
  %47 = getelementptr inbounds i8, ptr %4, i64 32
  %48 = getelementptr inbounds i8, ptr %11, i64 -16
  %49 = load i32, ptr %48, align 8
  %50 = zext i32 %49 to i64
  store i64 %50, ptr %47, align 16
  %51 = getelementptr inbounds i8, ptr %4, i64 40
  store i32 4, ptr %51, align 8
  %52 = getelementptr inbounds i8, ptr %4, i64 48
  %53 = load i64, ptr %36, align 8
  store i64 %53, ptr %52, align 16
  %54 = getelementptr inbounds i8, ptr %4, i64 56
  store i32 4, ptr %54, align 8
  %55 = getelementptr inbounds i8, ptr %4, i64 64
  %56 = getelementptr inbounds i8, ptr %11, i64 -40
  %57 = load i64, ptr %56, align 8
  store i64 %57, ptr %55, align 16
  %58 = getelementptr inbounds i8, ptr %4, i64 72
  store i32 4, ptr %58, align 8
  %59 = load ptr, ptr %5, align 8
  %60 = getelementptr inbounds i8, ptr %59, i64 16
  %61 = load ptr, ptr %60, align 8
  %62 = call i32 @object_init_ex(ptr noundef %1, ptr noundef %61) #10
  %63 = getelementptr inbounds i8, ptr %61, i64 256
  %64 = load ptr, ptr %63, align 8
  %65 = load ptr, ptr %1, align 8
  %66 = getelementptr inbounds i8, ptr %65, i64 16
  %67 = load ptr, ptr %66, align 8
  call void @zend_call_known_function(ptr noundef %64, ptr noundef %65, ptr noundef %67, ptr noundef null, i32 noundef 5, ptr noundef nonnull %4, ptr noundef null) #10
  call void @zval_ptr_dtor(ptr noundef nonnull %4) #10
  call void @zval_ptr_dtor(ptr noundef nonnull %35) #10
  br label %68

68:                                               ; preds = %45, %18
  call void @zval_ptr_dtor(ptr noundef nonnull %3) #10
  br label %69

69:                                               ; preds = %68, %15, %8
  ret void
}